; Function Attrs: mustprogress nofree norecurse nosync nounwind willreturn memory(read, inaccessiblemem: none) uwtable
define hidden noundef zeroext i1 @_ZN12PointsToNode23non_escaping_allocationEv(ptr nocapture noundef nonnull readonly align 8 dereferenceable(72) %0) local_unnamed_addr #5 align 2 {
  %2 = getelementptr inbounds i8, ptr %0, i64 48
  %3 = load i8, ptr %2, align 8
  %4 = icmp eq i8 %3, 1
  br i1 %4, label %5, label %18

5:                                                ; preds = %1
  %6 = getelementptr inbounds i8, ptr %0, i64 56
  %7 = load ptr, ptr %6, align 8
  %8 = getelementptr inbounds i8, ptr %7, i64 44
  %9 = load i32, ptr %8, align 4
  %10 = and i32 %9, 63
  %11 = icmp eq i32 %10, 39
  %12 = and i32 %9, 31
  %13 = icmp eq i32 %12, 31
  %or.cond = or i1 %11, %13
  br i1 %or.cond, label %14, label %.loopexit

14:                                               ; preds = %5
  %15 = getelementptr inbounds i8, ptr %0, i64 50
  %16 = load i8, ptr %15, align 2
  %17 = icmp eq i8 %16, 1
  br label %.loopexit

18:                                               ; preds = %1
  %19 = load i32, ptr %0, align 8
  %20 = icmp sgt i32 %19, 0
  br i1 %20, label %.lr.ph, label %.loopexit

.lr.ph:                                           ; preds = %18
  %21 = getelementptr inbounds i8, ptr %0, i64 8
  %22 = load ptr, ptr %21, align 8
  %wide.trip.count = zext nneg i32 %19 to i64
  br label %23

23:                                               ; preds = %.lr.ph, %41
  %indvars.iv = phi i64 [ 0, %.lr.ph ], [ %indvars.iv.next, %41 ]
  %24 = getelementptr inbounds ptr, ptr %22, i64 %indvars.iv
  %25 = load ptr, ptr %24, align 8
  %26 = getelementptr inbounds i8, ptr %25, i64 48
  %27 = load i8, ptr %26, align 8
  %28 = icmp eq i8 %27, 1
  br i1 %28, label %29, label %41

29:                                               ; preds = %23
  %30 = getelementptr inbounds i8, ptr %25, i64 50
  %31 = load i8, ptr %30, align 2
  %.not = icmp eq i8 %31, 1
  br i1 %.not, label %32, label %.loopexit

32:                                               ; preds = %29
  %33 = getelementptr inbounds i8, ptr %25, i64 56
  %34 = load ptr, ptr %33, align 8
  %35 = getelementptr inbounds i8, ptr %34, i64 44
  %36 = load i32, ptr %35, align 4
  %37 = and i32 %36, 63
  %38 = icmp eq i32 %37, 39
  %39 = and i32 %36, 31
  %40 = icmp eq i32 %39, 31
  %or.cond13 = or i1 %38, %40
  br i1 %or.cond13, label %41, label %.loopexit

41:                                               ; preds = %23, %32
  %indvars.iv.next = add nuw nsw i64 %indvars.iv, 1
  %exitcond.not = icmp eq i64 %indvars.iv.next, %wide.trip.count
  br i1 %exitcond.not, label %.loopexit, label %23, !llvm.loop !135

.loopexit:                                        ; preds = %29, %41, %32, %18, %5, %14
  %.0 = phi i1 [ %17, %14 ], [ false, %5 ], [ true, %18 ], [ false, %29 ], [ true, %41 ], [ false, %32 ]
  ret i1 %.0
}